target datalayout = "e-m:e-p270:32:32-p271:32:32-p272:64:64-i64:64-i128:128-f80:128-n8:16:32:64-S128"
target triple = "x86_64-pc-linux-gnu"

%struct._GLFWwindow = type { ptr, i32, i32, i32, i32, i32, i32, i32, ptr, i32, %struct.GLFWvidmode, ptr, ptr, ptr, i32, i32, i32, i32, i32, i32, i32, i32, i32, i32, [8 x i8], [349 x i8], double, double, i32, %struct._GLFWcontext, %struct.anon.33, %struct._GLFWwindowWayland, %struct._GLFWwindowX11, %struct._GLFWwindowNull }
%struct.GLFWvidmode = type { i32, i32, i32, i32, i32, i32 }
%struct._GLFWcontext = type { i32, i32, i32, i32, i32, i32, i32, i32, i32, i32, i32, ptr, ptr, ptr, ptr, ptr, ptr, ptr, ptr, ptr, %struct.anon.31, %struct.anon.32, %struct._GLFWcontextGLX }
%struct.anon.31 = type { ptr, ptr, ptr, ptr }
%struct.anon.32 = type { ptr, i32, i32, ptr }
%struct._GLFWcontextGLX = type { ptr, i64 }
%struct.anon.33 = type { ptr, ptr, ptr, ptr, ptr, ptr, ptr, ptr, ptr, ptr, ptr, ptr, ptr, ptr, ptr, ptr, ptr }
%struct._GLFWwindowWayland = type { i32, i32, i32, i32, i32, i32, i32, i32, i32, i32, i32, ptr, ptr, %struct.anon.34, %struct.anon.35, %struct.anon.36, %struct.anon.37, ptr, double, double, ptr, i32, ptr, i64, i64, ptr, i32, ptr, ptr, ptr, ptr, ptr, ptr, %struct.anon.38 }
%struct.anon.34 = type { ptr }
%struct.anon.35 = type { i32, i32, i32, i32, i32, i32 }
%struct.anon.36 = type { ptr, ptr, ptr, i32 }
%struct.anon.37 = type { ptr }
%struct.anon.38 = type { i32, ptr, %struct._GLFWfallbackEdgeWayland, %struct._GLFWfallbackEdgeWayland, %struct._GLFWfallbackEdgeWayland, %struct._GLFWfallbackEdgeWayland, ptr }
%struct._GLFWfallbackEdgeWayland = type { ptr, ptr, ptr }
%struct._GLFWwindowX11 = type { i64, i64, i64, ptr, i32, i32, i32, i32, i32, i32, i32, i32, i32, i32, i32, i32, [256 x i64] }
%struct._GLFWwindowNull = type { i32, i32, i32, i32, i32, i32, i32, i32, i32, i32, i32, float }
%struct.wl_array = type { i64, i64, ptr }

; Function Attrs: nounwind uwtable
define internal void @xdgToplevelHandleConfigure(ptr noundef %0, ptr noundef %1, i32 noundef %2, i32 noundef %3, ptr noundef %4) #0 {
  %6 = alloca ptr, align 8
  %7 = alloca ptr, align 8
  %8 = alloca i32, align 4
  %9 = alloca i32, align 4
  %10 = alloca ptr, align 8
  %11 = alloca ptr, align 8
  %12 = alloca ptr, align 8
  store ptr %0, ptr %6, align 8, !tbaa !151
  store ptr %1, ptr %7, align 8, !tbaa !254
  store i32 %2, ptr %8, align 4, !tbaa !129
  store i32 %3, ptr %9, align 4, !tbaa !129
  store ptr %4, ptr %10, align 8, !tbaa !448
  call void @llvm.lifetime.start.p0(i64 8, ptr %11) #9
  %13 = load ptr, ptr %6, align 8, !tbaa !151
  store ptr %13, ptr %11, align 8, !tbaa !3
  call void @llvm.lifetime.start.p0(i64 8, ptr %12) #9
  %14 = load ptr, ptr %11, align 8, !tbaa !3
  %15 = getelementptr inbounds nuw %struct._GLFWwindow, ptr %14, i32 0, i32 31
  %16 = getelementptr inbounds nuw %struct._GLFWwindowWayland, ptr %15, i32 0, i32 14
  %17 = getelementptr inbounds nuw %struct.anon.35, ptr %16, i32 0, i32 4
  store i32 0, ptr %17, align 8, !tbaa !493
  %18 = load ptr, ptr %11, align 8, !tbaa !3
  %19 = getelementptr inbounds nuw %struct._GLFWwindow, ptr %18, i32 0, i32 31
  %20 = getelementptr inbounds nuw %struct._GLFWwindowWayland, ptr %19, i32 0, i32 14
  %21 = getelementptr inbounds nuw %struct.anon.35, ptr %20, i32 0, i32 2
  store i32 0, ptr %21, align 8, !tbaa !494
  %22 = load ptr, ptr %11, align 8, !tbaa !3
  %23 = getelementptr inbounds nuw %struct._GLFWwindow, ptr %22, i32 0, i32 31
  %24 = getelementptr inbounds nuw %struct._GLFWwindowWayland, ptr %23, i32 0, i32 14
  %25 = getelementptr inbounds nuw %struct.anon.35, ptr %24, i32 0, i32 5
  store i32 0, ptr %25, align 4, !tbaa !495
  %26 = load ptr, ptr %10, align 8, !tbaa !448
  %27 = getelementptr inbounds nuw %struct.wl_array, ptr %26, i32 0, i32 2
  %28 = load ptr, ptr %27, align 8, !tbaa !498
  store ptr %28, ptr %12, align 8, !tbaa !257
  br label %29

29:                                               ; preds = %58, %5
  %30 = load ptr, ptr %12, align 8, !tbaa !257
  %31 = load ptr, ptr %10, align 8, !tbaa !448
  %32 = getelementptr inbounds nuw %struct.wl_array, ptr %31, i32 0, i32 2
  %33 = load ptr, ptr %32, align 8, !tbaa !498
  %34 = load ptr, ptr %10, align 8, !tbaa !448
  %35 = getelementptr inbounds nuw %struct.wl_array, ptr %34, i32 0, i32 0
  %36 = load i64, ptr %35, align 8, !tbaa !500
  %37 = getelementptr inbounds nuw i8, ptr %33, i64 %36
  %38 = icmp ult ptr %30, %37
  br i1 %38, label %39, label %61

39:                                               ; preds = %29
  %40 = load ptr, ptr %12, align 8, !tbaa !257
  %41 = load i32, ptr %40, align 4, !tbaa !129
  switch i32 %41, label %57 [
    i32 1, label %42
    i32 2, label %47
    i32 3, label %57
    i32 4, label %52
  ]

42:                                               ; preds = %39
  %43 = load ptr, ptr %11, align 8, !tbaa !3
  %44 = getelementptr inbounds nuw %struct._GLFWwindow, ptr %43, i32 0, i32 31
  %45 = getelementptr inbounds nuw %struct._GLFWwindowWayland, ptr %44, i32 0, i32 14
  %46 = getelementptr inbounds nuw %struct.anon.35, ptr %45, i32 0, i32 2
  store i32 1, ptr %46, align 8, !tbaa !494
  br label %57

47:                                               ; preds = %39
  %48 = load ptr, ptr %11, align 8, !tbaa !3
  %49 = getelementptr inbounds nuw %struct._GLFWwindow, ptr %48, i32 0, i32 31
  %50 = getelementptr inbounds nuw %struct._GLFWwindowWayland, ptr %49, i32 0, i32 14
  %51 = getelementptr inbounds nuw %struct.anon.35, ptr %50, i32 0, i32 5
  store i32 1, ptr %51, align 4, !tbaa !495
  br label %57

52:                                               ; preds = %39
  %53 = load ptr, ptr %11, align 8, !tbaa !3
  %54 = getelementptr inbounds nuw %struct._GLFWwindow, ptr %53, i32 0, i32 31
  %55 = getelementptr inbounds nuw %struct._GLFWwindowWayland, ptr %54, i32 0, i32 14
  %56 = getelementptr inbounds nuw %struct.anon.35, ptr %55, i32 0, i32 4
  store i32 1, ptr %56, align 8, !tbaa !493
  br label %57

57:                                               ; preds = %39, %52, %39, %47, %42
  br label %58

58:                                               ; preds = %57
  %59 = load ptr, ptr %12, align 8, !tbaa !257
  %60 = getelementptr inbounds nuw i32, ptr %59, i32 1
  store ptr %60, ptr %12, align 8, !tbaa !257
  br label %29

61:                                               ; preds = %29
  %62 = load i32, ptr %8, align 4, !tbaa !129
  %63 = icmp ne i32 %62, 0
  br i1 %63, label %64, label %102

64:                                               ; preds = %61
  %65 = load i32, ptr %9, align 4, !tbaa !129
  %66 = icmp ne i32 %65, 0
  br i1 %66, label %67, label %102

67:                                               ; preds = %64
  %68 = load ptr, ptr %11, align 8, !tbaa !3
  %69 = getelementptr inbounds nuw %struct._GLFWwindow, ptr %68, i32 0, i32 31
  %70 = getelementptr inbounds nuw %struct._GLFWwindowWayland, ptr %69, i32 0, i32 33
  %71 = getelementptr inbounds nuw %struct.anon.38, ptr %70, i32 0, i32 0
  %72 = load i32, ptr %71, align 8, !tbaa !174
  %73 = icmp ne i32 %72, 0
  br i1 %73, label %74, label %90

74:                                               ; preds = %67
  %75 = load i32, ptr %8, align 4, !tbaa !129
  %76 = sub nsw i32 %75, 8
  %77 = call i32 @_glfw_max(i32 noundef 0, i32 noundef %76)
  %78 = load ptr, ptr %11, align 8, !tbaa !3
  %79 = getelementptr inbounds nuw %struct._GLFWwindow, ptr %78, i32 0, i32 31
  %80 = getelementptr inbounds nuw %struct._GLFWwindowWayland, ptr %79, i32 0, i32 14
  %81 = getelementptr inbounds nuw %struct.anon.35, ptr %80, i32 0, i32 0
  store i32 %77, ptr %81, align 8, !tbaa !496
  %82 = load i32, ptr %9, align 4, !tbaa !129
  %83 = sub nsw i32 %82, 4
  %84 = sub nsw i32 %83, 24
  %85 = call i32 @_glfw_max(i32 noundef 0, i32 noundef %84)
  %86 = load ptr, ptr %11, align 8, !tbaa !3
  %87 = getelementptr inbounds nuw %struct._GLFWwindow, ptr %86, i32 0, i32 31
  %88 = getelementptr inbounds nuw %struct._GLFWwindowWayland, ptr %87, i32 0, i32 14
  %89 = getelementptr inbounds nuw %struct.anon.35, ptr %88, i32 0, i32 1
  store i32 %85, ptr %89, align 4, !tbaa !497
  br label %101

90:                                               ; preds = %67
  %91 = load i32, ptr %8, align 4, !tbaa !129
  %92 = load ptr, ptr %11, align 8, !tbaa !3
  %93 = getelementptr inbounds nuw %struct._GLFWwindow, ptr %92, i32 0, i32 31
  %94 = getelementptr inbounds nuw %struct._GLFWwindowWayland, ptr %93, i32 0, i32 14
  %95 = getelementptr inbounds nuw %struct.anon.35, ptr %94, i32 0, i32 0
  store i32 %91, ptr %95, align 8, !tbaa !496
  %96 = load i32, ptr %9, align 4, !tbaa !129
  %97 = load ptr, ptr %11, align 8, !tbaa !3
  %98 = getelementptr inbounds nuw %struct._GLFWwindow, ptr %97, i32 0, i32 31
  %99 = getelementptr inbounds nuw %struct._GLFWwindowWayland, ptr %98, i32 0, i32 14
  %100 = getelementptr inbounds nuw %struct.anon.35, ptr %99, i32 0, i32 1
  store i32 %96, ptr %100, align 4, !tbaa !497
  br label %101

101:                                              ; preds = %90, %74
  br label %119

102:                                              ; preds = %64, %61
  %103 = load ptr, ptr %11, align 8, !tbaa !3
  %104 = getelementptr inbounds nuw %struct._GLFWwindow, ptr %103, i32 0, i32 31
  %105 = getelementptr inbounds nuw %struct._GLFWwindowWayland, ptr %104, i32 0, i32 0
  %106 = load i32, ptr %105, align 8, !tbaa !143
  %107 = load ptr, ptr %11, align 8, !tbaa !3
  %108 = getelementptr inbounds nuw %struct._GLFWwindow, ptr %107, i32 0, i32 31
  %109 = getelementptr inbounds nuw %struct._GLFWwindowWayland, ptr %108, i32 0, i32 14
  %110 = getelementptr inbounds nuw %struct.anon.35, ptr %109, i32 0, i32 0
  store i32 %106, ptr %110, align 8, !tbaa !496
  %111 = load ptr, ptr %11, align 8, !tbaa !3
  %112 = getelementptr inbounds nuw %struct._GLFWwindow, ptr %111, i32 0, i32 31
  %113 = getelementptr inbounds nuw %struct._GLFWwindowWayland, ptr %112, i32 0, i32 1
  %114 = load i32, ptr %113, align 4, !tbaa !146
  %115 = load ptr, ptr %11, align 8, !tbaa !3
  %116 = getelementptr inbounds nuw %struct._GLFWwindow, ptr %115, i32 0, i32 31
  %117 = getelementptr inbounds nuw %struct._GLFWwindowWayland, ptr %116, i32 0, i32 14
  %118 = getelementptr inbounds nuw %struct.anon.35, ptr %117, i32 0, i32 1
  store i32 %114, ptr %118, align 4, !tbaa !497
  br label %119

119:                                              ; preds = %102, %101
  call void @llvm.lifetime.end.p0(i64 8, ptr %12) #9
  call void @llvm.lifetime.end.p0(i64 8, ptr %11) #9
  ret void
}