; Function Attrs: nounwind uwtable
define internal void @xdgToplevelHandleConfigure(ptr noundef captures(none) initializes((936, 940), (944, 952)) %0, ptr readnone captures(none) %1, i32 noundef %2, i32 noundef %3, ptr noundef readonly captures(none) %4) #0 {
  %6 = getelementptr inbounds nuw i8, ptr %0, i64 856
  %7 = getelementptr inbounds nuw i8, ptr %0, i64 928
  %8 = getelementptr inbounds nuw i8, ptr %0, i64 944
  store i32 0, ptr %8, align 8, !tbaa !394
  %9 = getelementptr inbounds nuw i8, ptr %0, i64 936
  store i32 0, ptr %9, align 8, !tbaa !395
  %10 = getelementptr inbounds nuw i8, ptr %0, i64 948
  store i32 0, ptr %10, align 4, !tbaa !396
  %11 = getelementptr inbounds nuw i8, ptr %4, i64 16
  %12 = load ptr, ptr %11, align 8, !tbaa !399
  %13 = load i64, ptr %4, align 8, !tbaa !401
  %14 = getelementptr inbounds nuw i8, ptr %12, i64 %13
  %.not31 = icmp eq i64 %13, 0
  br i1 %.not31, label %._crit_edge, label %.lr.ph

.lr.ph:                                           ; preds = %5, %19
  %.030 = phi ptr [ %20, %19 ], [ %12, %5 ]
  %15 = load i32, ptr %.030, align 4, !tbaa !147
  switch i32 %15, label %19 [
    i32 1, label %16
    i32 2, label %17
    i32 4, label %18
  ]

16:                                               ; preds = %.lr.ph
  store i32 1, ptr %9, align 8, !tbaa !395
  br label %19

17:                                               ; preds = %.lr.ph
  store i32 1, ptr %10, align 4, !tbaa !396
  br label %19

18:                                               ; preds = %.lr.ph
  store i32 1, ptr %8, align 8, !tbaa !394
  br label %19

19:                                               ; preds = %.lr.ph, %16, %17, %18
  %20 = getelementptr inbounds nuw i8, ptr %.030, i64 4
  %21 = icmp ult ptr %20, %14
  br i1 %21, label %.lr.ph, label %._crit_edge

._crit_edge:                                      ; preds = %19, %5
  %22 = icmp ne i32 %2, 0
  %23 = icmp ne i32 %3, 0
  %or.cond = and i1 %22, %23
  br i1 %or.cond, label %24, label %33

24:                                               ; preds = %._crit_edge
  %25 = getelementptr inbounds nuw i8, ptr %0, i64 1120
  %26 = load i32, ptr %25, align 8, !tbaa !162
  %.not = icmp eq i32 %26, 0
  br i1 %.not, label %32, label %27

27:                                               ; preds = %24
  %28 = add nsw i32 %2, -8
  %29 = tail call i32 @_glfw_max(i32 noundef 0, i32 noundef %28) #20
  store i32 %29, ptr %7, align 8, !tbaa !397
  %30 = add nsw i32 %3, -28
  %31 = tail call i32 @_glfw_max(i32 noundef 0, i32 noundef %30) #20
  br label %37

32:                                               ; preds = %24
  store i32 %2, ptr %7, align 8, !tbaa !397
  br label %37

33:                                               ; preds = %._crit_edge
  %34 = load i32, ptr %6, align 8, !tbaa !138
  store i32 %34, ptr %7, align 8, !tbaa !397
  %35 = getelementptr inbounds nuw i8, ptr %0, i64 860
  %36 = load i32, ptr %35, align 4, !tbaa !140
  br label %37

37:                                               ; preds = %27, %32, %33
  %.sink = phi i32 [ %31, %27 ], [ %3, %32 ], [ %36, %33 ]
  %38 = getelementptr inbounds nuw i8, ptr %0, i64 932
  store i32 %.sink, ptr %38, align 4, !tbaa !398
  ret void
}